(dp1
S'test_list'
p2
(lp3
S'19_test.tif'
p4
aS'13_test.tif'
p5
aS'05_test.tif'
p6
aS'16_test.tif'
p7
aS'07_test.tif'
p8
aS'11_test.tif'
p9
aS'20_test.tif'
p10
aS'01_test.tif'
p11
aS'09_test.tif'
p12
aS'18_test.tif'
p13
aS'10_test.tif'
p14
aS'03_test.tif'
p15
aS'14_test.tif'
p16
aS'06_test.tif'
p17
aS'08_test.tif'
p18
aS'02_test.tif'
p19
aS'12_test.tif'
p20
aS'15_test.tif'
p21
aS'04_test.tif'
p22
aS'17_test.tif'
p23
asS'train_list'
p24
(lp25
S'32_training.tif'
p26
aS'26_training.tif'
p27
aS'35_training.tif'
p28
aS'28_training.tif'
p29
aS'30_training.tif'
p30
aS'39_training.tif'
p31
aS'25_training.tif'
p32
aS'40_training.tif'
p33
aS'34_training.tif'
p34
aS'27_training.tif'
p35
aS'23_training.tif'
p36
aS'21_training.tif'
p37
aS'37_training.tif'
p38
aS'38_training.tif'
p39
aS'31_training.tif'
p40
aS'24_training.tif'
p41
aS'22_training.tif'
p42
aS'29_training.tif'
p43
aS'36_training.tif'
p44
aS'33_training.tif'
p45
as.